; Function Attrs: nounwind uwtable
define internal void @__cxx_global_array_dtor(ptr nocapture readnone %0) #3 section ".text.startup" {
entry:
  br label %arraydestroy.body

arraydestroy.body:                                ; preds = %arraydestroy.body, %entry
  %arraydestroy.elementPast = phi ptr [ getelementptr inbounds ([20 x %"class.std::__cxx11::basic_string"], ptr @_ZN4YAMLL10TokenNamesB5cxx11E, i64 1, i64 0), %entry ], [ %arraydestroy.element, %arraydestroy.body ]
  %arraydestroy.element = getelementptr inbounds i8, ptr %arraydestroy.elementPast, i64 -32
  tail call void @_ZNSt7__cxx1112basic_stringIcSt11char_traitsIcESaIcEED1Ev(ptr noundef nonnull align 8 dereferenceable(32) %arraydestroy.element) #15
  %arraydestroy.done = icmp eq ptr %arraydestroy.element, @_ZN4YAMLL10TokenNamesB5cxx11E
  br i1 %arraydestroy.done, label %arraydestroy.done1, label %arraydestroy.body

arraydestroy.done1:                               ; preds = %arraydestroy.body
  ret void
}